; Function Attrs: nounwind uwtable
define internal noundef i32 @seed_ofb_cipher(ptr noundef %0, ptr noundef %1, ptr noundef %2, i64 noundef %3) #1 {
  %5 = alloca i32, align 4
  %6 = alloca i32, align 4
  %7 = icmp ugt i64 %3, 1073741823
  br i1 %7, label %.lr.ph, label %._crit_edge

.lr.ph:                                           ; preds = %4
  %8 = getelementptr inbounds nuw i8, ptr %0, i64 40
  br label %9

9:                                                ; preds = %.lr.ph, %9
  %.021 = phi i64 [ %3, %.lr.ph ], [ %14, %9 ]
  %.01720 = phi ptr [ %2, %.lr.ph ], [ %15, %9 ]
  %.01819 = phi ptr [ %1, %.lr.ph ], [ %16, %9 ]
  call void @llvm.lifetime.start.p0(i64 4, ptr nonnull %5) #5
  %10 = call i32 @EVP_CIPHER_CTX_get_num(ptr noundef %0) #5
  store i32 %10, ptr %5, align 4, !tbaa !5
  %11 = call ptr @EVP_CIPHER_CTX_get_cipher_data(ptr noundef %0) #5
  call void @SEED_ofb128_encrypt(ptr noundef %.01720, ptr noundef %.01819, i64 noundef 1073741824, ptr noundef %11, ptr noundef nonnull %8, ptr noundef nonnull %5) #5
  %12 = load i32, ptr %5, align 4, !tbaa !5
  %13 = call i32 @EVP_CIPHER_CTX_set_num(ptr noundef %0, i32 noundef %12) #5
  %14 = add i64 %.021, -1073741824
  %15 = getelementptr inbounds nuw i8, ptr %.01720, i64 1073741824
  %16 = getelementptr inbounds nuw i8, ptr %.01819, i64 1073741824
  call void @llvm.lifetime.end.p0(i64 4, ptr nonnull %5) #5
  %17 = icmp ugt i64 %14, 1073741823
  br i1 %17, label %9, label %._crit_edge, !llvm.loop !10

._crit_edge:                                      ; preds = %9, %4
  %.018.lcssa = phi ptr [ %1, %4 ], [ %16, %9 ]
  %.017.lcssa = phi ptr [ %2, %4 ], [ %15, %9 ]
  %.0.lcssa = phi i64 [ %3, %4 ], [ %14, %9 ]
  %.not = icmp eq i64 %.0.lcssa, 0
  br i1 %.not, label %24, label %18

18:                                               ; preds = %._crit_edge
  call void @llvm.lifetime.start.p0(i64 4, ptr nonnull %6) #5
  %19 = call i32 @EVP_CIPHER_CTX_get_num(ptr noundef %0) #5
  store i32 %19, ptr %6, align 4, !tbaa !5
  %20 = call ptr @EVP_CIPHER_CTX_get_cipher_data(ptr noundef %0) #5
  %21 = getelementptr inbounds nuw i8, ptr %0, i64 40
  call void @SEED_ofb128_encrypt(ptr noundef %.017.lcssa, ptr noundef %.018.lcssa, i64 noundef %.0.lcssa, ptr noundef %20, ptr noundef nonnull %21, ptr noundef nonnull %6) #5
  %22 = load i32, ptr %6, align 4, !tbaa !5
  %23 = call i32 @EVP_CIPHER_CTX_set_num(ptr noundef %0, i32 noundef %22) #5
  call void @llvm.lifetime.end.p0(i64 4, ptr nonnull %6) #5
  br label %24

24:                                               ; preds = %18, %._crit_edge
  ret i32 1
}